; Function Attrs: mustprogress uwtable
define noundef zeroext i1 @_ZN16SampleEditPlugin9startEditER9MeshModelP6GLAreaP26MLSceneGLSharedDataContext(ptr noundef nonnull align 8 dereferenceable(132) %0, ptr nocapture nonnull readnone align 8 %1, ptr noundef %2, ptr nocapture readnone %3) unnamed_addr #9 align 2 personality ptr @__gxx_personality_v0 {
  %5 = alloca %class.QCursor, align 8
  %6 = alloca %class.QPixmap, align 8
  %7 = alloca %class.QString, align 8
  %8 = alloca %"class.QMetaObject::Connection", align 8
  %9 = tail call noundef ptr @_ZN7QString16fromAscii_helperEPKci(ptr noundef nonnull @.str.40, i32 noundef 21)
  store ptr %9, ptr %7, align 8
  invoke void @_ZN7QPixmapC1ERK7QStringPKc6QFlagsIN2Qt19ImageConversionFlagEE(ptr noundef nonnull align 8 dereferenceable(32) %6, ptr noundef nonnull align 8 dereferenceable(8) %7, ptr noundef null, i32 0)
          to label %10 unwind label %17

10:                                               ; preds = %4
  invoke void @_ZN7QCursorC1ERK7QPixmapii(ptr noundef nonnull align 8 dereferenceable(8) %5, ptr noundef nonnull align 8 dereferenceable(32) %6, i32 noundef 1, i32 noundef 1)
          to label %11 unwind label %19

11:                                               ; preds = %10
  invoke void @_ZN7QWidget9setCursorERK7QCursor(ptr noundef nonnull align 8 dereferenceable(48) %2, ptr noundef nonnull align 8 dereferenceable(8) %5)
          to label %12 unwind label %21

12:                                               ; preds = %11
  call void @_ZN7QCursorD1Ev(ptr noundef nonnull align 8 dereferenceable(8) %5) #25
  call void @_ZN7QPixmapD1Ev(ptr noundef nonnull align 8 dereferenceable(32) %6) #25
  %13 = load ptr, ptr %7, align 8
  %14 = load atomic i32, ptr %13 monotonic, align 4
  switch i32 %14, label %_ZN9QtPrivate8RefCount5derefEv.exit.i [
    i32 0, label %_ZN9QtPrivate8RefCount5derefEv.exit.thread2.i
    i32 -1, label %_ZN7QStringD2Ev.exit
  ]

_ZN9QtPrivate8RefCount5derefEv.exit.i:            ; preds = %12
  %15 = atomicrmw sub ptr %13, i32 1 seq_cst, align 4
  %.not.i = icmp eq i32 %15, 1
  br i1 %.not.i, label %_ZN9QtPrivate8RefCount5derefEv.exit._ZN9QtPrivate8RefCount5derefEv.exit.thread2_crit_edge.i, label %_ZN7QStringD2Ev.exit

_ZN9QtPrivate8RefCount5derefEv.exit._ZN9QtPrivate8RefCount5derefEv.exit.thread2_crit_edge.i: ; preds = %_ZN9QtPrivate8RefCount5derefEv.exit.i
  %.pre.i = load ptr, ptr %7, align 8
  br label %_ZN9QtPrivate8RefCount5derefEv.exit.thread2.i

_ZN9QtPrivate8RefCount5derefEv.exit.thread2.i:    ; preds = %_ZN9QtPrivate8RefCount5derefEv.exit._ZN9QtPrivate8RefCount5derefEv.exit.thread2_crit_edge.i, %12
  %16 = phi ptr [ %.pre.i, %_ZN9QtPrivate8RefCount5derefEv.exit._ZN9QtPrivate8RefCount5derefEv.exit.thread2_crit_edge.i ], [ %13, %12 ]
  call void @_ZN10QArrayData10deallocateEPS_mm(ptr noundef %16, i64 noundef 2, i64 noundef 8) #25
  br label %_ZN7QStringD2Ev.exit

_ZN7QStringD2Ev.exit:                             ; preds = %12, %_ZN9QtPrivate8RefCount5derefEv.exit.i, %_ZN9QtPrivate8RefCount5derefEv.exit.thread2.i
  call void @_ZN7QObject7connectEPKS_PKcS1_S3_N2Qt14ConnectionTypeE(ptr dead_on_unwind nonnull writable sret(%"class.QMetaObject::Connection") align 8 %8, ptr noundef nonnull %0, ptr noundef nonnull @.str.41, ptr noundef nonnull %2, ptr noundef nonnull @.str.42, i32 noundef 0)
  call void @_ZN11QMetaObject10ConnectionD1Ev(ptr noundef nonnull align 8 dereferenceable(8) %8) #25
  ret i1 true

17:                                               ; preds = %4
  %18 = landingpad { ptr, i32 }
          cleanup
  br label %24

19:                                               ; preds = %10
  %20 = landingpad { ptr, i32 }
          cleanup
  br label %23

21:                                               ; preds = %11
  %22 = landingpad { ptr, i32 }
          cleanup
  call void @_ZN7QCursorD1Ev(ptr noundef nonnull align 8 dereferenceable(8) %5) #25
  br label %23

23:                                               ; preds = %21, %19
  %.pn = phi { ptr, i32 } [ %22, %21 ], [ %20, %19 ]
  call void @_ZN7QPixmapD1Ev(ptr noundef nonnull align 8 dereferenceable(32) %6) #25
  br label %24

24:                                               ; preds = %23, %17
  %.pn.pn = phi { ptr, i32 } [ %.pn, %23 ], [ %18, %17 ]
  call void @_ZN7QStringD2Ev(ptr noundef nonnull align 8 dereferenceable(8) %7) #25
  resume { ptr, i32 } %.pn.pn
}